EXPORTS
   ??$get@VStringData@realm@@@Table@realm@@QBE?AVStringData@1@II@Z
   ??0Realm@realm@@AAE@UConfig@01@V?$shared_ptr@VRealmCoordinator@_impl@realm@@@std@@@Z
   ??0Results@realm@@QAE@V?$shared_ptr@VRealm@realm@@@std@@AAVTable@1@@Z
   ??0Results@realm@@QAE@XZ
   ??0Schema@realm@@QAE@$$QAV01@@Z
   ??0Schema@realm@@QAE@ABV01@@Z
   ??1NotificationToken@realm@@QAE@XZ
   ??1Realm@realm@@QAE@XZ
   ??1Results@realm@@QAE@XZ
   ??1Schema@realm@@QAE@XZ
   ??1Table@realm@@QAE@XZ
   ??4NotificationToken@realm@@QAEAAU01@$$QAU01@@Z
   ??4Results@realm@@QAEAAV01@$$QAV01@@Z
   ??4Schema@realm@@QAEAAV01@$$QAV01@@Z
   ?add_notification_callback@Results@realm@@QGAE?AUNotificationToken@2@VCollectionChangeCallback@2@@Z
   ?advance@transaction@_impl@realm@@YAXAAVSharedGroup@3@AAUTransactionChangeInfo@23@UVersionID@3@@Z
   ?begin_read@Internal@Realm@realm@@CAXAAV23@UVersionID@3@@Z
   ?count@IndexSet@realm@@QBEIII@Z
   ?finalize@CollectionChangeBuilder@_impl@realm@@QHAE?AUCollectionChangeSet@3@XZ
   ?find_first@ArrayString@realm@@QBEIVStringData@2@II@Z
   ?get@GenericEventLoop@util@realm@@SA?AV?$unique_ptr@UGenericEventLoop@util@realm@@U?$default_delete@UGenericEventLoop@util@realm@@@std@@@std@@XZ
   ?get_coordinator@RealmCoordinator@_impl@realm@@SA?AV?$shared_ptr@VRealmCoordinator@_impl@realm@@@std@@ABUConfig@Realm@3@@Z
   ?get_parent_accessor_management_lock@Table@realm@@ABEPAVrecursive_mutex@std@@XZ
   ?get_realm@RealmCoordinator@_impl@realm@@QAE?AV?$shared_ptr@VRealm@realm@@@std@@UConfig@Realm@3@@Z
   ?get_session@SyncManager@realm@@QAE?AV?$shared_ptr@VSyncSession@realm@@@std@@ABV?$basic_string@DU?$char_traits@D@std@@V?$allocator@D@2@@4@ABUSyncConfig@2@@Z
   ?get_shared_realm@Realm@realm@@SA?AV?$shared_ptr@VRealm@realm@@@std@@UConfig@12@@Z
   ?get_version_of_current_transaction@SharedGroup@realm@@QAE?AUVersionID@2@XZ
   ?object_type_for_table_name@ObjectStore@realm@@SA?AVStringData@2@V32@@Z
   ?read_group@Realm@realm@@QAEAAVGroup@2@XZ
   ?resolve@File@util@realm@@SA?AV?$basic_string@DU?$char_traits@D@std@@V?$allocator@D@2@@std@@ABV45@0@Z
   ?set_transaction_callback@RealmCoordinator@_impl@realm@@QAEXV?$function@$$A6AXUVersionID@realm@@0@Z@std@@@Z
   ?shared@SyncManager@realm@@SAAAV12@XZ
   ?table_for_object_type@ObjectStore@realm@@SA?AV?$BasicTableRef@VTable@realm@@@2@AAVGroup@2@VStringData@2@@Z
   ?terminate@util@realm@@YAXPBD0J$$QAV?$initializer_list@VPrintable@util@realm@@@std@@@Z
   ?terminate_with_info@util@realm@@YAXPBD0J0$$QAV?$initializer_list@VPrintable@util@realm@@@std@@@Z
   ?try_make_dir@util@realm@@YA_NABV?$basic_string@DU?$char_traits@D@std@@V?$allocator@D@2@@std@@@Z
   ?wait_for_download_completion@SyncSession@realm@@QAE_NV?$function@$$A6AXVerror_code@std@@@Z@std@@@Z
   ?what@LogicError@realm@@UBEPBDXZ