EXPORTS
   ??$get@VStringData@realm@@@Table@realm@@QEBA?AVStringData@1@_K0@Z
   ??0Realm@realm@@AEAA@UConfig@01@V?$shared_ptr@VRealmCoordinator@_impl@realm@@@std@@@Z
   ??0Results@realm@@QEAA@V?$shared_ptr@VRealm@realm@@@std@@AEAVTable@1@@Z
   ??0Results@realm@@QEAA@XZ
   ??0Schema@realm@@QEAA@$$QEAV01@@Z
   ??0Schema@realm@@QEAA@AEBV01@@Z
   ??1NotificationToken@realm@@QEAA@XZ
   ??1Realm@realm@@QEAA@XZ
   ??1Results@realm@@QEAA@XZ
   ??1Schema@realm@@QEAA@XZ
   ??1Table@realm@@QEAA@XZ
   ??4NotificationToken@realm@@QEAAAEAU01@$$QEAU01@@Z
   ??4Results@realm@@QEAAAEAV01@$$QEAV01@@Z
   ??4Schema@realm@@QEAAAEAV01@$$QEAV01@@Z
   ?add_notification_callback@Results@realm@@QEGAA?AUNotificationToken@2@VCollectionChangeCallback@2@@Z
   ?advance@transaction@_impl@realm@@YAXAEAVSharedGroup@3@AEAUTransactionChangeInfo@23@UVersionID@3@@Z
   ?begin_read@Internal@Realm@realm@@CAXAEAV23@UVersionID@3@@Z
   ?count@IndexSet@realm@@QEBA_K_K0@Z
   ?finalize@CollectionChangeBuilder@_impl@realm@@QEHAA?AUCollectionChangeSet@3@XZ
   ?find_first@ArrayString@realm@@QEBA_KVStringData@2@_K1@Z
   ?get@GenericEventLoop@util@realm@@SA?AV?$unique_ptr@UGenericEventLoop@util@realm@@U?$default_delete@UGenericEventLoop@util@realm@@@std@@@std@@XZ
   ?get_coordinator@RealmCoordinator@_impl@realm@@SA?AV?$shared_ptr@VRealmCoordinator@_impl@realm@@@std@@AEBUConfig@Realm@3@@Z
   ?get_parent_accessor_management_lock@Table@realm@@AEBAPEAVrecursive_mutex@std@@XZ
   ?get_realm@RealmCoordinator@_impl@realm@@QEAA?AV?$shared_ptr@VRealm@realm@@@std@@UConfig@Realm@3@@Z
   ?get_session@SyncManager@realm@@QEAA?AV?$shared_ptr@VSyncSession@realm@@@std@@AEBV?$basic_string@DU?$char_traits@D@std@@V?$allocator@D@2@@4@AEBUSyncConfig@2@@Z
   ?get_shared_realm@Realm@realm@@SA?AV?$shared_ptr@VRealm@realm@@@std@@UConfig@12@@Z
   ?get_version_of_current_transaction@SharedGroup@realm@@QEAA?AUVersionID@2@XZ
   ?object_type_for_table_name@ObjectStore@realm@@SA?AVStringData@2@V32@@Z
   ?read_group@Realm@realm@@QEAAAEAVGroup@2@XZ
   ?resolve@File@util@realm@@SA?AV?$basic_string@DU?$char_traits@D@std@@V?$allocator@D@2@@std@@AEBV45@0@Z
   ?set_transaction_callback@RealmCoordinator@_impl@realm@@QEAAXV?$function@$$A6AXUVersionID@realm@@0@Z@std@@@Z
   ?shared@SyncManager@realm@@SAAEAV12@XZ
   ?table_for_object_type@ObjectStore@realm@@SA?AV?$BasicTableRef@VTable@realm@@@2@AEAVGroup@2@VStringData@2@@Z
   ?terminate@util@realm@@YAXPEBD0J$$QEAV?$initializer_list@VPrintable@util@realm@@@std@@@Z
   ?terminate_with_info@util@realm@@YAXPEBD0J0$$QEAV?$initializer_list@VPrintable@util@realm@@@std@@@Z
   ?try_make_dir@util@realm@@YA_NAEBV?$basic_string@DU?$char_traits@D@std@@V?$allocator@D@2@@std@@@Z
   ?wait_for_download_completion@SyncSession@realm@@QEAA_NV?$function@$$A6AXVerror_code@std@@@Z@std@@@Z
   ?what@LogicError@realm@@UEBAPEBDXZ